target datalayout = "e-m:e-p270:32:32-p271:32:32-p272:64:64-i64:64-i128:128-f80:128-n8:16:32:64-S128"
target triple = "x86_64-pc-linux-gnu"

%struct.H5O_t = type { %struct.H5C_cache_entry_t, i64, i64, i8, i64, i8, i32, i8, i8, i64, i64, i64, i64, i32, i32, i64, i64, ptr, i64, i64, i64, i64, ptr, i8, ptr }
%struct.H5C_cache_entry_t = type { ptr, i64, i64, ptr, i8, ptr, i8, i8, i8, i8, i32, i8, i8, i8, i8, i8, i32, ptr, i32, i32, i32, i32, i32, i8, i8, ptr, ptr, ptr, ptr, ptr, ptr, i8, i32, i8, i64, ptr, i64, i64, i32, i8, i32, i32, i8, ptr, ptr, ptr }
%struct.H5O_chunk_proxy_t = type { %struct.H5C_cache_entry_t, ptr, ptr, i32, ptr }
%struct.H5O_chunk_t = type { i64, i64, i64, ptr, ptr }

@.str.1 = private unnamed_addr constant [102 x i8] c"generated/home/dtcxzyw/WorkSpace/Projects/compilers/llvm-opt-benchmark/bench/hdf5/hdf5/src/H5Ochunk.c\00", align 1
@H5E_OHDR_g = external global i64, align 8
@__func__.H5O__chunk_resize = private unnamed_addr constant [18 x i8] c"H5O__chunk_resize\00", align 1
@H5E_CANTRESIZE_g = external global i64, align 8
@.str.11 = private unnamed_addr constant [32 x i8] c"unable to resize chunk in cache\00", align 1

; Function Attrs: nounwind uwtable
define i32 @H5O__chunk_resize(ptr noundef %0, ptr noundef %1) #0 {
  %3 = alloca ptr, align 8
  %4 = alloca ptr, align 8
  %5 = alloca i32, align 4
  %6 = alloca i8, align 1
  store ptr %0, ptr %3, align 8
  store ptr %1, ptr %4, align 8
  store i32 0, ptr %5, align 4
  store i8 0, ptr %6, align 1
  %7 = load ptr, ptr %4, align 8
  %8 = getelementptr inbounds %struct.H5O_chunk_proxy_t, ptr %7, i32 0, i32 3
  %9 = load i32, ptr %8, align 8
  %10 = icmp eq i32 0, %9
  br i1 %10, label %11, label %37

11:                                               ; preds = %2
  %12 = load ptr, ptr %3, align 8
  %13 = load ptr, ptr %3, align 8
  %14 = getelementptr inbounds %struct.H5O_t, ptr %13, i32 0, i32 22
  %15 = load ptr, ptr %14, align 8
  %16 = getelementptr inbounds %struct.H5O_chunk_t, ptr %15, i64 0
  %17 = getelementptr inbounds %struct.H5O_chunk_t, ptr %16, i32 0, i32 1
  %18 = load i64, ptr %17, align 8
  %19 = call i32 @H5AC_resize_entry(ptr noundef %12, i64 noundef %18)
  %20 = icmp slt i32 %19, 0
  br i1 %20, label %21, label %36

21:                                               ; preds = %11
  br label %22

22:                                               ; preds = %21
  br label %23

23:                                               ; preds = %22
  br label %24

24:                                               ; preds = %23
  %25 = load i64, ptr @H5E_OHDR_g, align 8
  %26 = load i64, ptr @H5E_CANTRESIZE_g, align 8
  %27 = call i32 (ptr, ptr, i32, i64, i64, ptr, ...) @H5E_printf_stack(ptr noundef @.str.1, ptr noundef @__func__.H5O__chunk_resize, i32 noundef 273, i64 noundef %25, i64 noundef %26, ptr noundef @.str.11)
  br label %28

28:                                               ; preds = %24
  store i8 1, ptr %6, align 1
  %29 = load i8, ptr %6, align 1
  %30 = trunc i8 %29 to i1
  %31 = zext i1 %30 to i8
  store i8 %31, ptr %6, align 1
  br label %32

32:                                               ; preds = %28
  br label %33

33:                                               ; preds = %32
  store i32 -1, ptr %5, align 4
  br label %68

34:                                               ; No predecessors!
  br label %35

35:                                               ; preds = %34
  br label %36

36:                                               ; preds = %35, %11
  br label %67

37:                                               ; preds = %2
  %38 = load ptr, ptr %4, align 8
  %39 = load ptr, ptr %3, align 8
  %40 = getelementptr inbounds %struct.H5O_t, ptr %39, i32 0, i32 22
  %41 = load ptr, ptr %40, align 8
  %42 = load ptr, ptr %4, align 8
  %43 = getelementptr inbounds %struct.H5O_chunk_proxy_t, ptr %42, i32 0, i32 3
  %44 = load i32, ptr %43, align 8
  %45 = zext i32 %44 to i64
  %46 = getelementptr inbounds %struct.H5O_chunk_t, ptr %41, i64 %45
  %47 = getelementptr inbounds %struct.H5O_chunk_t, ptr %46, i32 0, i32 1
  %48 = load i64, ptr %47, align 8
  %49 = call i32 @H5AC_resize_entry(ptr noundef %38, i64 noundef %48)
  %50 = icmp slt i32 %49, 0
  br i1 %50, label %51, label %66

51:                                               ; preds = %37
  br label %52

52:                                               ; preds = %51
  br label %53

53:                                               ; preds = %52
  br label %54

54:                                               ; preds = %53
  %55 = load i64, ptr @H5E_OHDR_g, align 8
  %56 = load i64, ptr @H5E_CANTRESIZE_g, align 8
  %57 = call i32 (ptr, ptr, i32, i64, i64, ptr, ...) @H5E_printf_stack(ptr noundef @.str.1, ptr noundef @__func__.H5O__chunk_resize, i32 noundef 278, i64 noundef %55, i64 noundef %56, ptr noundef @.str.11)
  br label %58

58:                                               ; preds = %54
  store i8 1, ptr %6, align 1
  %59 = load i8, ptr %6, align 1
  %60 = trunc i8 %59 to i1
  %61 = zext i1 %60 to i8
  store i8 %61, ptr %6, align 1
  br label %62

62:                                               ; preds = %58
  br label %63

63:                                               ; preds = %62
  store i32 -1, ptr %5, align 4
  br label %68

64:                                               ; No predecessors!
  br label %65

65:                                               ; preds = %64
  br label %66

66:                                               ; preds = %65, %37
  br label %67

67:                                               ; preds = %66, %36
  br label %68

68:                                               ; preds = %67, %63, %33
  %69 = load i32, ptr %5, align 4
  ret i32 %69
}