; Function Attrs: nounwind uwtable
define range(i32 -1, 1) i32 @H5O__chunk_resize(ptr noundef %0, ptr noundef %1) local_unnamed_addr #0 {
  %3 = getelementptr inbounds i8, ptr %1, i64 264
  %4 = load i32, ptr %3, align 8
  %5 = icmp eq i32 %4, 0
  %6 = getelementptr inbounds i8, ptr %0, i64 392
  %7 = load ptr, ptr %6, align 8
  br i1 %5, label %8, label %13

8:                                                ; preds = %2
  %9 = getelementptr inbounds i8, ptr %7, i64 8
  %10 = load i64, ptr %9, align 8
  %11 = tail call i32 @H5AC_resize_entry(ptr noundef %0, i64 noundef %10) #3
  %12 = icmp slt i32 %11, 0
  br i1 %12, label %.sink.split, label %22

13:                                               ; preds = %2
  %14 = zext i32 %4 to i64
  %15 = getelementptr inbounds %struct.H5O_chunk_t, ptr %7, i64 %14, i32 1
  %16 = load i64, ptr %15, align 8
  %17 = tail call i32 @H5AC_resize_entry(ptr noundef nonnull %1, i64 noundef %16) #3
  %18 = icmp slt i32 %17, 0
  br i1 %18, label %.sink.split, label %22

.sink.split:                                      ; preds = %13, %8
  %.sink = phi i32 [ 273, %8 ], [ 278, %13 ]
  %19 = load i64, ptr @H5E_OHDR_g, align 8
  %20 = load i64, ptr @H5E_CANTRESIZE_g, align 8
  %21 = tail call i32 (ptr, ptr, i32, i64, i64, ptr, ...) @H5E_printf_stack(ptr noundef nonnull @.str.1, ptr noundef nonnull @__func__.H5O__chunk_resize, i32 noundef %.sink, i64 noundef %19, i64 noundef %20, ptr noundef nonnull @.str.11) #3
  br label %22

22:                                               ; preds = %.sink.split, %8, %13
  %.0 = phi i32 [ 0, %8 ], [ 0, %13 ], [ -1, %.sink.split ]
  ret i32 %.0
}